target datalayout = "e-m:e-p270:32:32-p271:32:32-p272:64:64-i64:64-i128:128-f80:128-n8:16:32:64-S128"
target triple = "x86_64-pc-linux-gnu"

%struct.timeval = type { i64, i64 }
%struct.task_desc = type { ptr, ptr, %struct.timeval, ptr, ptr, ptr }

@stats_tls_key_once = internal global i32 0, align 4
@stats_tls_key = internal global i32 0, align 4

; Function Attrs: nounwind uwtable
define dso_local void @thrmgr_setactiveengine(ptr noundef %0) #0 {
  %2 = alloca ptr, align 8
  %3 = alloca ptr, align 8
  store ptr %0, ptr %2, align 8
  %4 = call i32 @pthread_once(ptr noundef @stats_tls_key_once, ptr noundef @stats_tls_key_alloc)
  %5 = load i32, ptr @stats_tls_key, align 4
  %6 = call ptr @pthread_getspecific(i32 noundef %5) #8
  store ptr %6, ptr %3, align 8
  %7 = load ptr, ptr %3, align 8
  %8 = icmp ne ptr %7, null
  br i1 %8, label %10, label %9

9:                                                ; preds = %1
  br label %14

10:                                               ; preds = %1
  %11 = load ptr, ptr %2, align 8
  %12 = load ptr, ptr %3, align 8
  %13 = getelementptr inbounds %struct.task_desc, ptr %12, i32 0, i32 5
  store ptr %11, ptr %13, align 8
  br label %14

14:                                               ; preds = %10, %9
  ret void
}