; Function Attrs: nounwind uwtable
define dso_local void @thrmgr_setactiveengine(ptr noundef %0) local_unnamed_addr #0 {
  %2 = tail call i32 @pthread_once(ptr noundef nonnull @stats_tls_key_once, ptr noundef nonnull @stats_tls_key_alloc) #12
  %3 = load i32, ptr @stats_tls_key, align 4
  %4 = tail call ptr @pthread_getspecific(i32 noundef %3) #12
  %.not = icmp eq ptr %4, null
  br i1 %.not, label %7, label %5

5:                                                ; preds = %1
  %6 = getelementptr inbounds i8, ptr %4, i64 48
  store ptr %0, ptr %6, align 8
  br label %7

7:                                                ; preds = %1, %5
  ret void
}